target datalayout = "e-m:e-p270:32:32-p271:32:32-p272:64:64-i64:64-i128:128-f80:128-n8:16:32:64-S128"
target triple = "x86_64-pc-linux-gnu"

%"class.icu_77::GMTOffsetField" = type <{ ptr, ptr, i32, i8, [3 x i8] }>
%"class.icu_77::UnicodeString" = type { %"class.icu_77::Replaceable", %"union.icu_77::UnicodeString::StackBufferOrFields" }
%"class.icu_77::Replaceable" = type { %"class.icu_77::UObject" }
%"class.icu_77::UObject" = type { ptr }
%"union.icu_77::UnicodeString::StackBufferOrFields" = type { %struct.anon.0, [32 x i8] }
%struct.anon.0 = type { i16, i32, i32, ptr }
%"class.icu_77::TimeZoneFormat" = type { %"class.icu_77::Format", %"class.icu_77::Locale", [4 x i8], ptr, ptr, %"class.icu_77::UnicodeString", [6 x %"class.icu_77::UnicodeString"], [10 x i32], %"class.icu_77::UnicodeString", i32, %"class.icu_77::UnicodeString", %"class.icu_77::UnicodeString", [6 x ptr], i8, ptr }
%"class.icu_77::Format" = type { %"class.icu_77::UObject", ptr, ptr }
%"class.icu_77::Locale" = type <{ %"class.icu_77::UObject", [12 x i8], [6 x i8], [4 x i8], [2 x i8], i32, [4 x i8], ptr, [157 x i8], [3 x i8], ptr, i8, [7 x i8] }>
%"class.icu_77::UVector" = type { %"class.icu_77::UObject", i32, i32, ptr, ptr, ptr }

; Function Attrs: inlinehint mustprogress nounwind uwtable
define linkonce_odr noundef i32 @_ZNK6icu_7714GMTOffsetField7getTypeEv(ptr noundef nonnull align 8 dereferenceable(21) %0) #2 comdat align 2 {
  %2 = alloca ptr, align 8
  store ptr %0, ptr %2, align 8, !tbaa !23
  %3 = load ptr, ptr %2, align 8
  %4 = getelementptr inbounds nuw %"class.icu_77::GMTOffsetField", ptr %3, i32 0, i32 2
  %5 = load i32, ptr %4, align 8, !tbaa !31
  ret i32 %5
}

; Function Attrs: inlinehint mustprogress nounwind uwtable
define linkonce_odr noundef i32 @_ZNK6icu_777UVector4sizeEv(ptr noundef nonnull align 8 dereferenceable(40) %0) #2 comdat align 2 {
  %2 = alloca ptr, align 8
  store ptr %0, ptr %2, align 8, !tbaa !57
  %3 = load ptr, ptr %2, align 8
  %4 = getelementptr inbounds nuw %"class.icu_77::UVector", ptr %3, i32 0, i32 1
  %5 = load i32, ptr %4, align 8, !tbaa !147
  ret i32 %5
}

; Function Attrs: mustprogress uwtable
define void @_ZN6icu_7714TimeZoneFormat28checkAbuttingHoursAndMinutesEv(ptr noundef nonnull align 8 dereferenceable(1024) %0) #1 align 2 {
  %2 = alloca ptr, align 8
  %3 = alloca i32, align 4
  %4 = alloca i32, align 4
  %5 = alloca i8, align 1
  %6 = alloca ptr, align 8
  %7 = alloca i32, align 4
  %8 = alloca ptr, align 8
  %9 = alloca i32, align 4
  store ptr %0, ptr %2, align 8, !tbaa !39
  %10 = load ptr, ptr %2, align 8
  %11 = getelementptr inbounds nuw %"class.icu_77::TimeZoneFormat", ptr %10, i32 0, i32 13
  store i8 0, ptr %11, align 8, !tbaa !92
  call void @llvm.lifetime.start.p0(i64 4, ptr %3) #15
  store i32 0, ptr %3, align 4, !tbaa !14
  br label %12

12:                                               ; preds = %69, %1
  %13 = load i32, ptr %3, align 4, !tbaa !14
  %14 = icmp slt i32 %13, 6
  br i1 %14, label %16, label %15

15:                                               ; preds = %12
  store i32 2, ptr %4, align 4
  br label %72

16:                                               ; preds = %12
  call void @llvm.lifetime.start.p0(i64 1, ptr %5) #15
  store i8 0, ptr %5, align 1, !tbaa !37
  call void @llvm.lifetime.start.p0(i64 8, ptr %6) #15
  %17 = getelementptr inbounds nuw %"class.icu_77::TimeZoneFormat", ptr %10, i32 0, i32 12
  %18 = load i32, ptr %3, align 4, !tbaa !14
  %19 = sext i32 %18 to i64
  %20 = getelementptr inbounds [6 x ptr], ptr %17, i64 0, i64 %19
  %21 = load ptr, ptr %20, align 8, !tbaa !57
  store ptr %21, ptr %6, align 8, !tbaa !57
  call void @llvm.lifetime.start.p0(i64 4, ptr %7) #15
  store i32 0, ptr %7, align 4, !tbaa !14
  br label %22

22:                                               ; preds = %56, %16
  %23 = load i32, ptr %7, align 4, !tbaa !14
  %24 = load ptr, ptr %6, align 8, !tbaa !57
  %25 = call noundef i32 @_ZNK6icu_777UVector4sizeEv(ptr noundef nonnull align 8 dereferenceable(40) %24)
  %26 = icmp slt i32 %23, %25
  br i1 %26, label %28, label %27

27:                                               ; preds = %22
  store i32 5, ptr %4, align 4
  br label %59

28:                                               ; preds = %22
  call void @llvm.lifetime.start.p0(i64 8, ptr %8) #15
  %29 = load ptr, ptr %6, align 8, !tbaa !57
  %30 = load i32, ptr %7, align 4, !tbaa !14
  %31 = call noundef ptr @_ZNK6icu_777UVector9elementAtEi(ptr noundef nonnull align 8 dereferenceable(40) %29, i32 noundef %30)
  store ptr %31, ptr %8, align 8, !tbaa !23
  call void @llvm.lifetime.start.p0(i64 4, ptr %9) #15
  %32 = load ptr, ptr %8, align 8, !tbaa !23
  %33 = call noundef i32 @_ZNK6icu_7714GMTOffsetField7getTypeEv(ptr noundef nonnull align 8 dereferenceable(21) %32)
  store i32 %33, ptr %9, align 4, !tbaa !38
  %34 = load i32, ptr %9, align 4, !tbaa !38
  %35 = icmp ne i32 %34, 0
  br i1 %35, label %36, label %47

36:                                               ; preds = %28
  %37 = load i8, ptr %5, align 1, !tbaa !37
  %38 = icmp ne i8 %37, 0
  br i1 %38, label %39, label %41

39:                                               ; preds = %36
  %40 = getelementptr inbounds nuw %"class.icu_77::TimeZoneFormat", ptr %10, i32 0, i32 13
  store i8 1, ptr %40, align 8, !tbaa !92
  store i32 5, ptr %4, align 4
  br label %53

41:                                               ; preds = %36
  %42 = load i32, ptr %9, align 4, !tbaa !38
  %43 = icmp eq i32 %42, 1
  br i1 %43, label %44, label %45

44:                                               ; preds = %41
  store i8 1, ptr %5, align 1, !tbaa !37
  br label %45

45:                                               ; preds = %44, %41
  br label %46

46:                                               ; preds = %45
  br label %52

47:                                               ; preds = %28
  %48 = load i8, ptr %5, align 1, !tbaa !37
  %49 = icmp ne i8 %48, 0
  br i1 %49, label %50, label %51

50:                                               ; preds = %47
  store i32 5, ptr %4, align 4
  br label %53

51:                                               ; preds = %47
  br label %52

52:                                               ; preds = %51, %46
  store i32 0, ptr %4, align 4
  br label %53

53:                                               ; preds = %52, %50, %39
  call void @llvm.lifetime.end.p0(i64 4, ptr %9) #15
  call void @llvm.lifetime.end.p0(i64 8, ptr %8) #15
  %54 = load i32, ptr %4, align 4
  switch i32 %54, label %59 [
    i32 0, label %55
  ]

55:                                               ; preds = %53
  br label %56

56:                                               ; preds = %55
  %57 = load i32, ptr %7, align 4, !tbaa !14
  %58 = add nsw i32 %57, 1
  store i32 %58, ptr %7, align 4, !tbaa !14
  br label %22, !llvm.loop !93

59:                                               ; preds = %53, %27
  call void @llvm.lifetime.end.p0(i64 4, ptr %7) #15
  br label %60

60:                                               ; preds = %59
  %61 = getelementptr inbounds nuw %"class.icu_77::TimeZoneFormat", ptr %10, i32 0, i32 13
  %62 = load i8, ptr %61, align 8, !tbaa !92
  %63 = icmp ne i8 %62, 0
  br i1 %63, label %64, label %65

64:                                               ; preds = %60
  store i32 2, ptr %4, align 4
  br label %66

65:                                               ; preds = %60
  store i32 0, ptr %4, align 4
  br label %66

66:                                               ; preds = %65, %64
  call void @llvm.lifetime.end.p0(i64 8, ptr %6) #15
  call void @llvm.lifetime.end.p0(i64 1, ptr %5) #15
  %67 = load i32, ptr %4, align 4
  switch i32 %67, label %72 [
    i32 0, label %68
  ]

68:                                               ; preds = %66
  br label %69

69:                                               ; preds = %68
  %70 = load i32, ptr %3, align 4, !tbaa !14
  %71 = add nsw i32 %70, 1
  store i32 %71, ptr %3, align 4, !tbaa !14
  br label %12, !llvm.loop !94

72:                                               ; preds = %66, %15
  call void @llvm.lifetime.end.p0(i64 4, ptr %3) #15
  br label %73

73:                                               ; preds = %72
  ret void
}

; Function Attrs: inlinehint mustprogress nounwind uwtable
define internal noundef signext i8 @_ZL9U_FAILURE10UErrorCode(i32 noundef %0) #2 {
  %2 = alloca i32, align 4
  store i32 %0, ptr %2, align 4, !tbaa !15
  %3 = load i32, ptr %2, align 4, !tbaa !15
  %4 = icmp sgt i32 %3, 0
  %5 = zext i1 %4 to i8
  ret i8 %5
}

; Function Attrs: mustprogress uwtable
define void @_ZN6icu_7714TimeZoneFormat21initGMTOffsetPatternsER10UErrorCode(ptr noundef nonnull align 8 dereferenceable(1024) %0, ptr noundef nonnull align 4 dereferenceable(4) %1) #1 align 2 {
  %3 = alloca ptr, align 8
  %4 = alloca ptr, align 8
  %5 = alloca i32, align 4
  store ptr %0, ptr %3, align 8, !tbaa !39
  store ptr %1, ptr %4, align 8, !tbaa !22
  %6 = load ptr, ptr %3, align 8
  call void @llvm.lifetime.start.p0(i64 4, ptr %5) #15
  store i32 0, ptr %5, align 4, !tbaa !14
  br label %7

7:                                                ; preds = %47, %2
  %8 = load i32, ptr %5, align 4, !tbaa !14
  %9 = icmp slt i32 %8, 6
  br i1 %9, label %11, label %10

10:                                               ; preds = %7
  call void @llvm.lifetime.end.p0(i64 4, ptr %5) #15
  br label %50

11:                                               ; preds = %7
  %12 = load i32, ptr %5, align 4, !tbaa !14
  switch i32 %12, label %46 [
    i32 4, label %13
    i32 5, label %13
    i32 0, label %24
    i32 2, label %24
    i32 1, label %35
    i32 3, label %35
  ]

13:                                               ; preds = %11, %11
  %14 = getelementptr inbounds nuw %"class.icu_77::TimeZoneFormat", ptr %6, i32 0, i32 6
  %15 = load i32, ptr %5, align 4, !tbaa !14
  %16 = sext i32 %15 to i64
  %17 = getelementptr inbounds [6 x %"class.icu_77::UnicodeString"], ptr %14, i64 0, i64 %16
  %18 = load ptr, ptr %4, align 8, !tbaa !22
  %19 = call noundef ptr @_ZN6icu_7714TimeZoneFormat18parseOffsetPatternERKNS_13UnicodeStringENS0_12OffsetFieldsER10UErrorCode(ptr noundef nonnull align 8 dereferenceable(64) %17, i32 noundef 0, ptr noundef nonnull align 4 dereferenceable(4) %18)
  %20 = getelementptr inbounds nuw %"class.icu_77::TimeZoneFormat", ptr %6, i32 0, i32 12
  %21 = load i32, ptr %5, align 4, !tbaa !14
  %22 = sext i32 %21 to i64
  %23 = getelementptr inbounds [6 x ptr], ptr %20, i64 0, i64 %22
  store ptr %19, ptr %23, align 8, !tbaa !57
  br label %46

24:                                               ; preds = %11, %11
  %25 = getelementptr inbounds nuw %"class.icu_77::TimeZoneFormat", ptr %6, i32 0, i32 6
  %26 = load i32, ptr %5, align 4, !tbaa !14
  %27 = sext i32 %26 to i64
  %28 = getelementptr inbounds [6 x %"class.icu_77::UnicodeString"], ptr %25, i64 0, i64 %27
  %29 = load ptr, ptr %4, align 8, !tbaa !22
  %30 = call noundef ptr @_ZN6icu_7714TimeZoneFormat18parseOffsetPatternERKNS_13UnicodeStringENS0_12OffsetFieldsER10UErrorCode(ptr noundef nonnull align 8 dereferenceable(64) %28, i32 noundef 1, ptr noundef nonnull align 4 dereferenceable(4) %29)
  %31 = getelementptr inbounds nuw %"class.icu_77::TimeZoneFormat", ptr %6, i32 0, i32 12
  %32 = load i32, ptr %5, align 4, !tbaa !14
  %33 = sext i32 %32 to i64
  %34 = getelementptr inbounds [6 x ptr], ptr %31, i64 0, i64 %33
  store ptr %30, ptr %34, align 8, !tbaa !57
  br label %46

35:                                               ; preds = %11, %11
  %36 = getelementptr inbounds nuw %"class.icu_77::TimeZoneFormat", ptr %6, i32 0, i32 6
  %37 = load i32, ptr %5, align 4, !tbaa !14
  %38 = sext i32 %37 to i64
  %39 = getelementptr inbounds [6 x %"class.icu_77::UnicodeString"], ptr %36, i64 0, i64 %38
  %40 = load ptr, ptr %4, align 8, !tbaa !22
  %41 = call noundef ptr @_ZN6icu_7714TimeZoneFormat18parseOffsetPatternERKNS_13UnicodeStringENS0_12OffsetFieldsER10UErrorCode(ptr noundef nonnull align 8 dereferenceable(64) %39, i32 noundef 2, ptr noundef nonnull align 4 dereferenceable(4) %40)
  %42 = getelementptr inbounds nuw %"class.icu_77::TimeZoneFormat", ptr %6, i32 0, i32 12
  %43 = load i32, ptr %5, align 4, !tbaa !14
  %44 = sext i32 %43 to i64
  %45 = getelementptr inbounds [6 x ptr], ptr %42, i64 0, i64 %44
  store ptr %41, ptr %45, align 8, !tbaa !57
  br label %46

46:                                               ; preds = %11, %35, %24, %13
  br label %47

47:                                               ; preds = %46
  %48 = load i32, ptr %5, align 4, !tbaa !14
  %49 = add nsw i32 %48, 1
  store i32 %49, ptr %5, align 4, !tbaa !14
  br label %7, !llvm.loop !73

50:                                               ; preds = %10
  %51 = load ptr, ptr %4, align 8, !tbaa !22
  %52 = load i32, ptr %51, align 4, !tbaa !15
  %53 = call noundef signext i8 @_ZL9U_FAILURE10UErrorCode(i32 noundef %52)
  %54 = icmp ne i8 %53, 0
  br i1 %54, label %55, label %56

55:                                               ; preds = %50
  br label %57

56:                                               ; preds = %50
  call void @_ZN6icu_7714TimeZoneFormat28checkAbuttingHoursAndMinutesEv(ptr noundef nonnull align 8 dereferenceable(1024) %6)
  br label %57

57:                                               ; preds = %56, %55
  ret void
}