; Function Attrs: mustprogress uwtable
define void @_ZN6icu_7714TimeZoneFormat21initGMTOffsetPatternsER10UErrorCode(ptr noundef nonnull align 8 captures(none) dereferenceable(1024) %0, ptr noundef nonnull align 4 dereferenceable(4) %1) local_unnamed_addr #1 align 2 {
  %3 = getelementptr inbounds nuw i8, ptr %0, i64 336
  %4 = getelementptr inbounds nuw i8, ptr %0, i64 960
  br label %switch.lookup

5:                                                ; preds = %switch.lookup
  %6 = load i32, ptr %1, align 4, !tbaa !13
  %7 = icmp slt i32 %6, 1
  br i1 %7, label %12, label %_ZN6icu_7714TimeZoneFormat28checkAbuttingHoursAndMinutesEv.exit

switch.lookup:                                    ; preds = %2, %switch.lookup
  %indvars.iv = phi i64 [ 0, %2 ], [ %indvars.iv.next, %switch.lookup ]
  %sext = shl i64 %indvars.iv, 32
  %8 = ashr exact i64 %sext, 32
  %switch.gep = getelementptr inbounds [6 x i32], ptr @switch.table._ZN6icu_7714TimeZoneFormat19setGMTOffsetPatternE35UTimeZoneFormatGMTOffsetPatternTypeRKNS_13UnicodeStringER10UErrorCode, i64 0, i64 %8
  %switch.load = load i32, ptr %switch.gep, align 4
  %9 = getelementptr inbounds nuw [6 x %"class.icu_77::UnicodeString"], ptr %3, i64 0, i64 %indvars.iv
  %10 = tail call noundef ptr @_ZN6icu_7714TimeZoneFormat18parseOffsetPatternERKNS_13UnicodeStringENS0_12OffsetFieldsER10UErrorCode(ptr noundef nonnull align 8 dereferenceable(64) %9, i32 noundef %switch.load, ptr noundef nonnull align 4 dereferenceable(4) %1)
  %11 = getelementptr inbounds nuw [6 x ptr], ptr %4, i64 0, i64 %indvars.iv
  store ptr %10, ptr %11, align 8, !tbaa !38
  %indvars.iv.next = add nuw nsw i64 %indvars.iv, 1
  %exitcond.not = icmp eq i64 %indvars.iv.next, 6
  br i1 %exitcond.not, label %5, label %switch.lookup, !llvm.loop !45

12:                                               ; preds = %5
  %13 = getelementptr inbounds nuw i8, ptr %0, i64 1008
  store i8 0, ptr %13, align 8, !tbaa !47
  br label %.backedge

._crit_edge.thread.i:                             ; preds = %.backedge
  %indvars.iv.next.old.i = add nuw nsw i64 %indvars.iv.i, 1
  %exitcond.not.old.i = icmp eq i64 %indvars.iv.next.old.i, 6
  br i1 %exitcond.not.old.i, label %_ZN6icu_7714TimeZoneFormat28checkAbuttingHoursAndMinutesEv.exit, label %.backedge.backedge

.backedge.backedge:                               ; preds = %._crit_edge.thread.i, %._crit_edge.i
  %indvars.iv.i.be = phi i64 [ %indvars.iv.next.old.i, %._crit_edge.thread.i ], [ %indvars.iv.next.i, %._crit_edge.i ]
  br label %.backedge, !llvm.loop !52

.backedge:                                        ; preds = %.backedge.backedge, %12
  %indvars.iv.i = phi i64 [ 0, %12 ], [ %indvars.iv.i.be, %.backedge.backedge ]
  %14 = getelementptr inbounds nuw [6 x ptr], ptr %4, i64 0, i64 %indvars.iv.i
  %15 = load ptr, ptr %14, align 8, !tbaa !38
  %16 = getelementptr inbounds nuw i8, ptr %15, i64 8
  %17 = load i32, ptr %16, align 8, !tbaa !48
  %18 = icmp sgt i32 %17, 0
  br i1 %18, label %.lr.ph.i, label %._crit_edge.thread.i

.lr.ph.i:                                         ; preds = %.backedge, %25
  %.01735.i = phi i32 [ %26, %25 ], [ 0, %.backedge ]
  %.01834.i = phi i8 [ %.11928.i, %25 ], [ 0, %.backedge ]
  %19 = tail call noundef ptr @_ZNK6icu_777UVector9elementAtEi(ptr noundef nonnull align 8 dereferenceable(40) %15, i32 noundef %.01735.i)
  %20 = getelementptr inbounds nuw i8, ptr %19, i64 16
  %21 = load i32, ptr %20, align 8, !tbaa !21
  %.not.i = icmp eq i32 %21, 0
  %.not21.i = icmp eq i8 %.01834.i, 0
  br i1 %.not.i, label %24, label %22

22:                                               ; preds = %.lr.ph.i
  br i1 %.not21.i, label %.thread.i, label %.thread32.i

.thread32.i:                                      ; preds = %22
  store i8 1, ptr %13, align 8, !tbaa !47
  br label %_ZN6icu_7714TimeZoneFormat28checkAbuttingHoursAndMinutesEv.exit

.thread.i:                                        ; preds = %22
  %23 = icmp eq i32 %21, 1
  %spec.select.i = zext i1 %23 to i8
  br label %25

24:                                               ; preds = %.lr.ph.i
  br i1 %.not21.i, label %25, label %._crit_edge.i

25:                                               ; preds = %24, %.thread.i
  %.11928.i = phi i8 [ %spec.select.i, %.thread.i ], [ 0, %24 ]
  %26 = add nuw nsw i32 %.01735.i, 1
  %27 = load i32, ptr %16, align 8, !tbaa !48
  %28 = icmp slt i32 %26, %27
  br i1 %28, label %.lr.ph.i, label %._crit_edge.i, !llvm.loop !51

._crit_edge.i:                                    ; preds = %25, %24
  %.pr.pre.i = load i8, ptr %13, align 8, !tbaa !47
  %29 = icmp ne i8 %.pr.pre.i, 0
  %indvars.iv.next.i = add nuw nsw i64 %indvars.iv.i, 1
  %exitcond.not.i = icmp eq i64 %indvars.iv.next.i, 6
  %or.cond.i = select i1 %29, i1 true, i1 %exitcond.not.i
  br i1 %or.cond.i, label %_ZN6icu_7714TimeZoneFormat28checkAbuttingHoursAndMinutesEv.exit, label %.backedge.backedge

_ZN6icu_7714TimeZoneFormat28checkAbuttingHoursAndMinutesEv.exit: ; preds = %._crit_edge.i, %._crit_edge.thread.i, %.thread32.i, %5
  ret void
}